target datalayout = "e-m:e-p270:32:32-p271:32:32-p272:64:64-i64:64-i128:128-f80:128-n8:16:32:64-S128"
target triple = "x86_64-pc-linux-gnu"

%struct.RelationData = type { %struct.RelFileLocator, ptr, i32, i32, i8, i8, i8, i8, i8, i32, i32, i32, i32, ptr, ptr, i32, %struct.LockInfoData, ptr, ptr, ptr, ptr, ptr, i8, ptr, ptr, ptr, ptr, ptr, ptr, i32, ptr, i8, ptr, ptr, i32, i8, i32, ptr, i8, ptr, ptr, ptr, ptr, ptr, ptr, ptr, i32, ptr, ptr, ptr, ptr, ptr, ptr, ptr, ptr, ptr, ptr, ptr, ptr, ptr, ptr, ptr, ptr, ptr, ptr, ptr, i32, i8, ptr }
%struct.RelFileLocator = type { i32, i32, i32 }
%struct.LockInfoData = type { %struct.LockRelId }
%struct.LockRelId = type { i32, i32 }
%struct.FormData_pg_class = type { i32, %struct.nameData, i32, i32, i32, i32, i32, i32, i32, i32, float, i32, i32, i8, i8, i8, i8, i16, i16, i8, i8, i8, i8, i8, i8, i8, i8, i32, i32, i32 }
%struct.nameData = type { [64 x i8] }
%struct.FunctionCallInfoBaseData = type { ptr, ptr, ptr, i32, i8, i16, [0 x %struct.NullableDatum] }
%struct.NullableDatum = type { i64, i8 }
%struct.FormData_pg_index = type { i32, i32, i16, i16, i8, i8, i8, i8, i8, i8, i8, i8, i8, i8, i8, %struct.int2vector }
%struct.int2vector = type { i32, i32, i32, i32, i32, i32, [0 x i16] }

@.str.1 = private unnamed_addr constant [7 x i8] c"brin.c\00", align 1
@.str.7 = private unnamed_addr constant [24 x i8] c"recovery is in progress\00", align 1
@.str.8 = private unnamed_addr constant [59 x i8] c"BRIN control functions cannot be executed during recovery.\00", align 1
@.str.9 = private unnamed_addr constant [32 x i8] c"block number out of range: %lld\00", align 1
@.str.10 = private unnamed_addr constant [25 x i8] c"\22%s\22 is not a BRIN index\00", align 1
@.str.11 = private unnamed_addr constant [42 x i8] c"could not open parent table of index \22%s\22\00", align 1
@.str.12 = private unnamed_addr constant [24 x i8] c"index \22%s\22 is not valid\00", align 1
@__func__.brin_desummarize_range = private unnamed_addr constant [23 x i8] c"brin_desummarize_range\00", align 1

; Function Attrs: inlinehint nounwind uwtable
define internal i64 @DatumGetInt64(i64 noundef %0) #2 {
  %2 = alloca i64, align 8
  store i64 %0, ptr %2, align 8
  %3 = load i64, ptr %2, align 8
  ret i64 %3
}

; Function Attrs: inlinehint nounwind uwtable
define internal i32 @DatumGetObjectId(i64 noundef %0) #2 {
  %2 = alloca i64, align 8
  store i64 %0, ptr %2, align 8
  %3 = load i64, ptr %2, align 8
  %4 = trunc i64 %3 to i32
  ret i32 %4
}

; Function Attrs: nounwind uwtable
define dso_local i64 @brin_desummarize_range(ptr noundef %0) #0 {
  %2 = alloca ptr, align 8
  %3 = alloca i32, align 4
  %4 = alloca i64, align 8
  %5 = alloca i32, align 4
  %6 = alloca i32, align 4
  %7 = alloca ptr, align 8
  %8 = alloca ptr, align 8
  %9 = alloca i8, align 1
  store ptr %0, ptr %2, align 8
  call void @llvm.lifetime.start.p0(i64 4, ptr %3) #9
  %10 = load ptr, ptr %2, align 8
  %11 = getelementptr inbounds nuw %struct.FunctionCallInfoBaseData, ptr %10, i32 0, i32 6
  %12 = getelementptr inbounds [0 x %struct.NullableDatum], ptr %11, i64 0, i64 0
  %13 = getelementptr inbounds nuw %struct.NullableDatum, ptr %12, i32 0, i32 0
  %14 = load i64, ptr %13, align 8
  %15 = call i32 @DatumGetObjectId(i64 noundef %14)
  store i32 %15, ptr %3, align 4
  call void @llvm.lifetime.start.p0(i64 8, ptr %4) #9
  %16 = load ptr, ptr %2, align 8
  %17 = getelementptr inbounds nuw %struct.FunctionCallInfoBaseData, ptr %16, i32 0, i32 6
  %18 = getelementptr inbounds [0 x %struct.NullableDatum], ptr %17, i64 0, i64 1
  %19 = getelementptr inbounds nuw %struct.NullableDatum, ptr %18, i32 0, i32 0
  %20 = load i64, ptr %19, align 8
  %21 = call i64 @DatumGetInt64(i64 noundef %20)
  store i64 %21, ptr %4, align 8
  call void @llvm.lifetime.start.p0(i64 4, ptr %5) #9
  call void @llvm.lifetime.start.p0(i64 4, ptr %6) #9
  call void @llvm.lifetime.start.p0(i64 8, ptr %7) #9
  call void @llvm.lifetime.start.p0(i64 8, ptr %8) #9
  call void @llvm.lifetime.start.p0(i64 1, ptr %9) #9
  %22 = call zeroext i1 @RecoveryInProgress()
  br i1 %22, label %23, label %36

23:                                               ; preds = %1
  br label %24

24:                                               ; preds = %23
  br i1 true, label %25, label %27

25:                                               ; preds = %24
  %26 = call zeroext i1 @errstart_cold(i32 noundef 21, ptr noundef null) #10
  br i1 %26, label %29, label %33

27:                                               ; preds = %24
  %28 = call zeroext i1 @errstart(i32 noundef 21, ptr noundef null)
  br i1 %28, label %29, label %33

29:                                               ; preds = %27, %25
  %30 = call i32 @errcode(i32 noundef 325)
  %31 = call i32 (ptr, ...) @errmsg(ptr noundef @.str.7)
  %32 = call i32 (ptr, ...) @errhint(ptr noundef @.str.8)
  call void @errfinish(ptr noundef @.str.1, i32 noundef 1499, ptr noundef @__func__.brin_desummarize_range)
  br label %33

33:                                               ; preds = %29, %27, %25
  unreachable

34:                                               ; No predecessors!
  br label %35

35:                                               ; preds = %34
  br label %36

36:                                               ; preds = %35, %1
  %37 = load i64, ptr %4, align 8
  %38 = icmp sgt i64 %37, 4294967294
  br i1 %38, label %42, label %39

39:                                               ; preds = %36
  %40 = load i64, ptr %4, align 8
  %41 = icmp slt i64 %40, 0
  br i1 %41, label %42, label %55

42:                                               ; preds = %39, %36
  br label %43

43:                                               ; preds = %42
  br i1 true, label %44, label %46

44:                                               ; preds = %43
  %45 = call zeroext i1 @errstart_cold(i32 noundef 21, ptr noundef null) #10
  br i1 %45, label %48, label %52

46:                                               ; preds = %43
  %47 = call zeroext i1 @errstart(i32 noundef 21, ptr noundef null)
  br i1 %47, label %48, label %52

48:                                               ; preds = %46, %44
  %49 = call i32 @errcode(i32 noundef 50331778)
  %50 = load i64, ptr %4, align 8
  %51 = call i32 (ptr, ...) @errmsg(ptr noundef @.str.9, i64 noundef %50)
  call void @errfinish(ptr noundef @.str.1, i32 noundef 1505, ptr noundef @__func__.brin_desummarize_range)
  br label %52

52:                                               ; preds = %48, %46, %44
  unreachable

53:                                               ; No predecessors!
  br label %54

54:                                               ; preds = %53
  br label %55

55:                                               ; preds = %54, %39
  %56 = load i64, ptr %4, align 8
  %57 = trunc i64 %56 to i32
  store i32 %57, ptr %5, align 4
  %58 = load i32, ptr %3, align 4
  %59 = call i32 @IndexGetRelation(i32 noundef %58, i1 noundef zeroext true)
  store i32 %59, ptr %6, align 4
  %60 = load i32, ptr %6, align 4
  %61 = icmp ne i32 %60, 0
  br i1 %61, label %62, label %65

62:                                               ; preds = %55
  %63 = load i32, ptr %6, align 4
  %64 = call ptr @table_open(i32 noundef %63, i32 noundef 4)
  store ptr %64, ptr %7, align 8
  br label %66

65:                                               ; preds = %55
  store ptr null, ptr %7, align 8
  br label %66

66:                                               ; preds = %65, %62
  %67 = load i32, ptr %3, align 4
  %68 = call ptr @index_open(i32 noundef %67, i32 noundef 4)
  store ptr %68, ptr %8, align 8
  %69 = load ptr, ptr %8, align 8
  %70 = getelementptr inbounds nuw %struct.RelationData, ptr %69, i32 0, i32 13
  %71 = load ptr, ptr %70, align 8
  %72 = getelementptr inbounds nuw %struct.FormData_pg_class, ptr %71, i32 0, i32 16
  %73 = load i8, ptr %72, align 1
  %74 = sext i8 %73 to i32
  %75 = icmp ne i32 %74, 105
  br i1 %75, label %83, label %76

76:                                               ; preds = %66
  %77 = load ptr, ptr %8, align 8
  %78 = getelementptr inbounds nuw %struct.RelationData, ptr %77, i32 0, i32 13
  %79 = load ptr, ptr %78, align 8
  %80 = getelementptr inbounds nuw %struct.FormData_pg_class, ptr %79, i32 0, i32 6
  %81 = load i32, ptr %80, align 4
  %82 = icmp ne i32 %81, 3580
  br i1 %82, label %83, label %101

83:                                               ; preds = %76, %66
  br label %84

84:                                               ; preds = %83
  br i1 true, label %85, label %87

85:                                               ; preds = %84
  %86 = call zeroext i1 @errstart_cold(i32 noundef 21, ptr noundef null) #10
  br i1 %86, label %89, label %98

87:                                               ; preds = %84
  %88 = call zeroext i1 @errstart(i32 noundef 21, ptr noundef null)
  br i1 %88, label %89, label %98

89:                                               ; preds = %87, %85
  %90 = call i32 @errcode(i32 noundef 151027844)
  %91 = load ptr, ptr %8, align 8
  %92 = getelementptr inbounds nuw %struct.RelationData, ptr %91, i32 0, i32 13
  %93 = load ptr, ptr %92, align 8
  %94 = getelementptr inbounds nuw %struct.FormData_pg_class, ptr %93, i32 0, i32 1
  %95 = getelementptr inbounds nuw %struct.nameData, ptr %94, i32 0, i32 0
  %96 = getelementptr inbounds [64 x i8], ptr %95, i64 0, i64 0
  %97 = call i32 (ptr, ...) @errmsg(ptr noundef @.str.10, ptr noundef %96)
  call void @errfinish(ptr noundef @.str.1, i32 noundef 1531, ptr noundef @__func__.brin_desummarize_range)
  br label %98

98:                                               ; preds = %89, %87, %85
  unreachable

99:                                               ; No predecessors!
  br label %100

100:                                              ; preds = %99
  br label %101

101:                                              ; preds = %100, %76
  %102 = load i32, ptr %3, align 4
  %103 = call i32 @GetUserId()
  %104 = call zeroext i1 @object_ownercheck(i32 noundef 1259, i32 noundef %102, i32 noundef %103)
  br i1 %104, label %112, label %105

105:                                              ; preds = %101
  %106 = load ptr, ptr %8, align 8
  %107 = getelementptr inbounds nuw %struct.RelationData, ptr %106, i32 0, i32 13
  %108 = load ptr, ptr %107, align 8
  %109 = getelementptr inbounds nuw %struct.FormData_pg_class, ptr %108, i32 0, i32 1
  %110 = getelementptr inbounds nuw %struct.nameData, ptr %109, i32 0, i32 0
  %111 = getelementptr inbounds [64 x i8], ptr %110, i64 0, i64 0
  call void @aclcheck_error(i32 noundef 2, i32 noundef 20, ptr noundef %111)
  br label %112

112:                                              ; preds = %105, %101
  %113 = load ptr, ptr %7, align 8
  %114 = icmp eq ptr %113, null
  br i1 %114, label %120, label %115

115:                                              ; preds = %112
  %116 = load i32, ptr %6, align 4
  %117 = load i32, ptr %3, align 4
  %118 = call i32 @IndexGetRelation(i32 noundef %117, i1 noundef zeroext false)
  %119 = icmp ne i32 %116, %118
  br i1 %119, label %120, label %138

120:                                              ; preds = %115, %112
  br label %121

121:                                              ; preds = %120
  br i1 true, label %122, label %124

122:                                              ; preds = %121
  %123 = call zeroext i1 @errstart_cold(i32 noundef 21, ptr noundef null) #10
  br i1 %123, label %126, label %135

124:                                              ; preds = %121
  %125 = call zeroext i1 @errstart(i32 noundef 21, ptr noundef null)
  br i1 %125, label %126, label %135

126:                                              ; preds = %124, %122
  %127 = call i32 @errcode(i32 noundef 16908420)
  %128 = load ptr, ptr %8, align 8
  %129 = getelementptr inbounds nuw %struct.RelationData, ptr %128, i32 0, i32 13
  %130 = load ptr, ptr %129, align 8
  %131 = getelementptr inbounds nuw %struct.FormData_pg_class, ptr %130, i32 0, i32 1
  %132 = getelementptr inbounds nuw %struct.nameData, ptr %131, i32 0, i32 0
  %133 = getelementptr inbounds [64 x i8], ptr %132, i64 0, i64 0
  %134 = call i32 (ptr, ...) @errmsg(ptr noundef @.str.11, ptr noundef %133)
  call void @errfinish(ptr noundef @.str.1, i32 noundef 1547, ptr noundef @__func__.brin_desummarize_range)
  br label %135

135:                                              ; preds = %126, %124, %122
  unreachable

136:                                              ; No predecessors!
  br label %137

137:                                              ; preds = %136
  br label %138

138:                                              ; preds = %137, %115
  %139 = load ptr, ptr %8, align 8
  %140 = getelementptr inbounds nuw %struct.RelationData, ptr %139, i32 0, i32 48
  %141 = load ptr, ptr %140, align 8
  %142 = getelementptr inbounds nuw %struct.FormData_pg_index, ptr %141, i32 0, i32 10
  %143 = load i8, ptr %142, align 2, !range !4, !noundef !5
  %144 = trunc i8 %143 to i1
  br i1 %144, label %145, label %156

145:                                              ; preds = %138
  br label %146

146:                                              ; preds = %151, %145
  %147 = load ptr, ptr %8, align 8
  %148 = load i32, ptr %5, align 4
  %149 = call zeroext i1 @brinRevmapDesummarizeRange(ptr noundef %147, i32 noundef %148)
  %150 = zext i1 %149 to i8
  store i8 %150, ptr %9, align 1
  br label %151

151:                                              ; preds = %146
  %152 = load i8, ptr %9, align 1, !range !4, !noundef !5
  %153 = trunc i8 %152 to i1
  %154 = xor i1 %153, true
  br i1 %154, label %146, label %155, !llvm.loop !24

155:                                              ; preds = %151
  br label %174

156:                                              ; preds = %138
  br label %157

157:                                              ; preds = %156
  br i1 false, label %158, label %160

158:                                              ; preds = %157
  %159 = call zeroext i1 @errstart_cold(i32 noundef 14, ptr noundef null) #10
  br i1 %159, label %162, label %171

160:                                              ; preds = %157
  %161 = call zeroext i1 @errstart(i32 noundef 14, ptr noundef null)
  br i1 %161, label %162, label %171

162:                                              ; preds = %160, %158
  %163 = call i32 @errcode(i32 noundef 325)
  %164 = load ptr, ptr %8, align 8
  %165 = getelementptr inbounds nuw %struct.RelationData, ptr %164, i32 0, i32 13
  %166 = load ptr, ptr %165, align 8
  %167 = getelementptr inbounds nuw %struct.FormData_pg_class, ptr %166, i32 0, i32 1
  %168 = getelementptr inbounds nuw %struct.nameData, ptr %167, i32 0, i32 0
  %169 = getelementptr inbounds [64 x i8], ptr %168, i64 0, i64 0
  %170 = call i32 (ptr, ...) @errmsg(ptr noundef @.str.12, ptr noundef %169)
  call void @errfinish(ptr noundef @.str.1, i32 noundef 1563, ptr noundef @__func__.brin_desummarize_range)
  br label %171

171:                                              ; preds = %162, %160, %158
  br label %172

172:                                              ; preds = %171
  br label %173

173:                                              ; preds = %172
  br label %174

174:                                              ; preds = %173, %155
  %175 = load ptr, ptr %8, align 8
  call void @relation_close(ptr noundef %175, i32 noundef 4)
  %176 = load ptr, ptr %7, align 8
  call void @relation_close(ptr noundef %176, i32 noundef 4)
  call void @llvm.lifetime.end.p0(i64 1, ptr %9) #9
  call void @llvm.lifetime.end.p0(i64 8, ptr %8) #9
  call void @llvm.lifetime.end.p0(i64 8, ptr %7) #9
  call void @llvm.lifetime.end.p0(i64 4, ptr %6) #9
  call void @llvm.lifetime.end.p0(i64 4, ptr %5) #9
  call void @llvm.lifetime.end.p0(i64 8, ptr %4) #9
  call void @llvm.lifetime.end.p0(i64 4, ptr %3) #9
  ret i64 0
}