; Function Attrs: nounwind uwtable
define dso_local noundef i64 @brin_desummarize_range(ptr noundef readonly captures(none) %0) local_unnamed_addr #0 {
  %2 = getelementptr inbounds nuw i8, ptr %0, i64 32
  %3 = load i64, ptr %2, align 8
  %4 = trunc i64 %3 to i32
  %5 = getelementptr inbounds nuw i8, ptr %0, i64 48
  %6 = load i64, ptr %5, align 8
  %7 = tail call zeroext i1 @RecoveryInProgress() #10
  br i1 %7, label %8, label %13

8:                                                ; preds = %1
  %9 = tail call zeroext i1 @errstart_cold(i32 noundef 21, ptr noundef null) #11
  tail call void @llvm.assume(i1 %9)
  %10 = tail call i32 @errcode(i32 noundef 325) #10
  %11 = tail call i32 (ptr, ...) @errmsg(ptr noundef nonnull @.str.7) #10
  %12 = tail call i32 (ptr, ...) @errhint(ptr noundef nonnull @.str.8) #10
  tail call void @errfinish(ptr noundef nonnull @.str.1, i32 noundef 1499, ptr noundef nonnull @__func__.brin_desummarize_range) #10
  unreachable

13:                                               ; preds = %1
  %or.cond = icmp ugt i64 %6, 4294967294
  br i1 %or.cond, label %14, label %18

14:                                               ; preds = %13
  %15 = tail call zeroext i1 @errstart_cold(i32 noundef 21, ptr noundef null) #11
  tail call void @llvm.assume(i1 %15)
  %16 = tail call i32 @errcode(i32 noundef 50331778) #10
  %17 = tail call i32 (ptr, ...) @errmsg(ptr noundef nonnull @.str.9, i64 noundef %6) #10
  tail call void @errfinish(ptr noundef nonnull @.str.1, i32 noundef 1505, ptr noundef nonnull @__func__.brin_desummarize_range) #10
  unreachable

18:                                               ; preds = %13
  %19 = trunc nuw i64 %6 to i32
  %20 = tail call i32 @IndexGetRelation(i32 noundef %4, i1 noundef zeroext true) #10
  %.not = icmp eq i32 %20, 0
  br i1 %.not, label %23, label %21

21:                                               ; preds = %18
  %22 = tail call ptr @table_open(i32 noundef %20, i32 noundef 4) #10
  br label %23

23:                                               ; preds = %18, %21
  %.0 = phi ptr [ %22, %21 ], [ null, %18 ]
  %24 = tail call ptr @index_open(i32 noundef %4, i32 noundef 4) #10
  %25 = getelementptr inbounds nuw i8, ptr %24, i64 56
  %26 = load ptr, ptr %25, align 8
  %27 = getelementptr inbounds nuw i8, ptr %26, i64 115
  %28 = load i8, ptr %27, align 1
  %.not28 = icmp eq i8 %28, 105
  br i1 %.not28, label %29, label %32

29:                                               ; preds = %23
  %30 = getelementptr inbounds nuw i8, ptr %26, i64 84
  %31 = load i32, ptr %30, align 4
  %.not29 = icmp eq i32 %31, 3580
  br i1 %.not29, label %38, label %32

32:                                               ; preds = %29, %23
  %33 = tail call zeroext i1 @errstart_cold(i32 noundef 21, ptr noundef null) #11
  tail call void @llvm.assume(i1 %33)
  %34 = tail call i32 @errcode(i32 noundef 151027844) #10
  %35 = load ptr, ptr %25, align 8
  %36 = getelementptr inbounds nuw i8, ptr %35, i64 4
  %37 = tail call i32 (ptr, ...) @errmsg(ptr noundef nonnull @.str.10, ptr noundef nonnull %36) #10
  tail call void @errfinish(ptr noundef nonnull @.str.1, i32 noundef 1531, ptr noundef nonnull @__func__.brin_desummarize_range) #10
  unreachable

38:                                               ; preds = %29
  %39 = tail call i32 @GetUserId() #10
  %40 = tail call zeroext i1 @object_ownercheck(i32 noundef 1259, i32 noundef %4, i32 noundef %39) #10
  br i1 %40, label %44, label %41

41:                                               ; preds = %38
  %42 = load ptr, ptr %25, align 8
  %43 = getelementptr inbounds nuw i8, ptr %42, i64 4
  tail call void @aclcheck_error(i32 noundef 2, i32 noundef 20, ptr noundef nonnull %43) #10
  br label %44

44:                                               ; preds = %41, %38
  %45 = icmp eq ptr %.0, null
  br i1 %45, label %48, label %46

46:                                               ; preds = %44
  %47 = tail call i32 @IndexGetRelation(i32 noundef %4, i1 noundef zeroext false) #10
  %.not30 = icmp eq i32 %20, %47
  br i1 %.not30, label %54, label %48

48:                                               ; preds = %46, %44
  %49 = tail call zeroext i1 @errstart_cold(i32 noundef 21, ptr noundef null) #11
  tail call void @llvm.assume(i1 %49)
  %50 = tail call i32 @errcode(i32 noundef 16908420) #10
  %51 = load ptr, ptr %25, align 8
  %52 = getelementptr inbounds nuw i8, ptr %51, i64 4
  %53 = tail call i32 (ptr, ...) @errmsg(ptr noundef nonnull @.str.11, ptr noundef nonnull %52) #10
  tail call void @errfinish(ptr noundef nonnull @.str.1, i32 noundef 1547, ptr noundef nonnull @__func__.brin_desummarize_range) #10
  unreachable

54:                                               ; preds = %46
  %55 = getelementptr inbounds nuw i8, ptr %24, i64 328
  %56 = load ptr, ptr %55, align 8
  %57 = getelementptr inbounds nuw i8, ptr %56, i64 18
  %58 = load i8, ptr %57, align 2, !range !4, !noundef !5
  %59 = trunc nuw i8 %58 to i1
  br i1 %59, label %.preheader, label %61

.preheader:                                       ; preds = %54, %.preheader
  %60 = tail call zeroext i1 @brinRevmapDesummarizeRange(ptr noundef %24, i32 noundef %19) #10
  br i1 %60, label %.loopexit, label %.preheader, !llvm.loop !29

61:                                               ; preds = %54
  %62 = tail call zeroext i1 @errstart(i32 noundef 14, ptr noundef null) #10
  br i1 %62, label %63, label %.loopexit

63:                                               ; preds = %61
  %64 = tail call i32 @errcode(i32 noundef 325) #10
  %65 = load ptr, ptr %25, align 8
  %66 = getelementptr inbounds nuw i8, ptr %65, i64 4
  %67 = tail call i32 (ptr, ...) @errmsg(ptr noundef nonnull @.str.12, ptr noundef nonnull %66) #10
  tail call void @errfinish(ptr noundef nonnull @.str.1, i32 noundef 1563, ptr noundef nonnull @__func__.brin_desummarize_range) #10
  br label %.loopexit

.loopexit:                                        ; preds = %.preheader, %61, %63
  tail call void @relation_close(ptr noundef %24, i32 noundef 4) #10
  tail call void @relation_close(ptr noundef nonnull %.0, i32 noundef 4) #10
  ret i64 0
}